; Function Attrs: nounwind uwtable
define void @Abc_NtkRemovePo(ptr noundef %0, i32 noundef %1, i32 noundef %2) local_unnamed_addr #0 {
  %4 = getelementptr i8, ptr %0, i64 48
  %.val = load ptr, ptr %4, align 8, !tbaa !32
  %5 = getelementptr i8, ptr %.val, i64 8
  %.val.val = load ptr, ptr %5, align 8, !tbaa !28
  %6 = sext i32 %1 to i64
  %7 = getelementptr inbounds ptr, ptr %.val.val, i64 %6
  %8 = load ptr, ptr %7, align 8, !tbaa !40
  %.val6 = load ptr, ptr %8, align 8, !tbaa !75
  %9 = getelementptr i8, ptr %8, i64 32
  %.val7 = load ptr, ptr %9, align 8, !tbaa !78
  %10 = getelementptr i8, ptr %.val6, i64 32
  %.val6.val = load ptr, ptr %10, align 8, !tbaa !29
  %.val7.val = load i32, ptr %.val7, align 4, !tbaa !57
  %11 = getelementptr i8, ptr %.val6.val, i64 8
  %.val6.val.val = load ptr, ptr %11, align 8, !tbaa !28
  %12 = sext i32 %.val7.val to i64
  %13 = getelementptr inbounds ptr, ptr %.val6.val.val, i64 %12
  %14 = load ptr, ptr %13, align 8, !tbaa !40
  %15 = tail call ptr @Abc_AigConst1(ptr noundef %0) #20
  %16 = icmp eq ptr %14, %15
  br i1 %16, label %17, label %23

17:                                               ; preds = %3
  %18 = getelementptr i8, ptr %8, i64 20
  %.val8 = load i32, ptr %18, align 4
  %19 = lshr i32 %.val8, 10
  %20 = and i32 %19, 1
  %21 = icmp eq i32 %20, %2
  br i1 %21, label %22, label %23

22:                                               ; preds = %17
  tail call void @Abc_NtkDeleteObj(ptr noundef nonnull %8) #20
  br label %23

23:                                               ; preds = %22, %17, %3
  ret void
}